target datalayout = "e-m:e-p270:32:32-p271:32:32-p272:64:64-i64:64-i128:128-f80:128-n8:16:32:64-S128"
target triple = "x86_64-pc-linux-gnu"

%struct.nk_rect = type { float, float, float, float }
%struct.nk_vec2 = type { float, float }
%struct.nk_input = type { %struct.nk_keyboard, %struct.nk_mouse }
%struct.nk_keyboard = type { [30 x %struct.nk_key], [16 x i8], i32 }
%struct.nk_key = type { i32, i32 }
%struct.nk_mouse = type { [4 x %struct.nk_mouse_button], %struct.nk_vec2, %struct.nk_vec2, %struct.nk_vec2, %struct.nk_vec2, i8, i8, i8 }
%struct.nk_mouse_button = type { i32, i32, %struct.nk_vec2 }

; Function Attrs: nounwind uwtable
define i32 @nk_input_is_mouse_hovering_rect(ptr noundef %0, <2 x float> %1, <2 x float> %2) #2 {
  %4 = alloca i32, align 4
  %5 = alloca %struct.nk_rect, align 4
  %6 = alloca ptr, align 8
  %7 = getelementptr inbounds nuw { <2 x float>, <2 x float> }, ptr %5, i32 0, i32 0
  store <2 x float> %1, ptr %7, align 4
  %8 = getelementptr inbounds nuw { <2 x float>, <2 x float> }, ptr %5, i32 0, i32 1
  store <2 x float> %2, ptr %8, align 4
  store ptr %0, ptr %6, align 8, !tbaa !788
  %9 = load ptr, ptr %6, align 8, !tbaa !788
  %10 = icmp ne ptr %9, null
  br i1 %10, label %12, label %11

11:                                               ; preds = %3
  store i32 0, ptr %4, align 4
  br label %59

12:                                               ; preds = %3
  %13 = getelementptr inbounds nuw %struct.nk_rect, ptr %5, i32 0, i32 0
  %14 = load float, ptr %13, align 4, !tbaa !8
  %15 = load ptr, ptr %6, align 8, !tbaa !788
  %16 = getelementptr inbounds nuw %struct.nk_input, ptr %15, i32 0, i32 1
  %17 = getelementptr inbounds nuw %struct.nk_mouse, ptr %16, i32 0, i32 1
  %18 = getelementptr inbounds nuw %struct.nk_vec2, ptr %17, i32 0, i32 0
  %19 = load float, ptr %18, align 4, !tbaa !794
  %20 = fcmp ole float %14, %19
  br i1 %20, label %21, label %56

21:                                               ; preds = %12
  %22 = load ptr, ptr %6, align 8, !tbaa !788
  %23 = getelementptr inbounds nuw %struct.nk_input, ptr %22, i32 0, i32 1
  %24 = getelementptr inbounds nuw %struct.nk_mouse, ptr %23, i32 0, i32 1
  %25 = getelementptr inbounds nuw %struct.nk_vec2, ptr %24, i32 0, i32 0
  %26 = load float, ptr %25, align 4, !tbaa !794
  %27 = getelementptr inbounds nuw %struct.nk_rect, ptr %5, i32 0, i32 0
  %28 = load float, ptr %27, align 4, !tbaa !8
  %29 = getelementptr inbounds nuw %struct.nk_rect, ptr %5, i32 0, i32 2
  %30 = load float, ptr %29, align 4, !tbaa !11
  %31 = fadd float %28, %30
  %32 = fcmp olt float %26, %31
  br i1 %32, label %33, label %56

33:                                               ; preds = %21
  %34 = getelementptr inbounds nuw %struct.nk_rect, ptr %5, i32 0, i32 1
  %35 = load float, ptr %34, align 4, !tbaa !10
  %36 = load ptr, ptr %6, align 8, !tbaa !788
  %37 = getelementptr inbounds nuw %struct.nk_input, ptr %36, i32 0, i32 1
  %38 = getelementptr inbounds nuw %struct.nk_mouse, ptr %37, i32 0, i32 1
  %39 = getelementptr inbounds nuw %struct.nk_vec2, ptr %38, i32 0, i32 1
  %40 = load float, ptr %39, align 4, !tbaa !796
  %41 = fcmp ole float %35, %40
  br i1 %41, label %42, label %54

42:                                               ; preds = %33
  %43 = load ptr, ptr %6, align 8, !tbaa !788
  %44 = getelementptr inbounds nuw %struct.nk_input, ptr %43, i32 0, i32 1
  %45 = getelementptr inbounds nuw %struct.nk_mouse, ptr %44, i32 0, i32 1
  %46 = getelementptr inbounds nuw %struct.nk_vec2, ptr %45, i32 0, i32 1
  %47 = load float, ptr %46, align 4, !tbaa !796
  %48 = getelementptr inbounds nuw %struct.nk_rect, ptr %5, i32 0, i32 1
  %49 = load float, ptr %48, align 4, !tbaa !10
  %50 = getelementptr inbounds nuw %struct.nk_rect, ptr %5, i32 0, i32 3
  %51 = load float, ptr %50, align 4, !tbaa !12
  %52 = fadd float %49, %51
  %53 = fcmp olt float %47, %52
  br label %54

54:                                               ; preds = %42, %33
  %55 = phi i1 [ false, %33 ], [ %53, %42 ]
  br label %56

56:                                               ; preds = %54, %21, %12
  %57 = phi i1 [ false, %21 ], [ false, %12 ], [ %55, %54 ]
  %58 = zext i1 %57 to i32
  store i32 %58, ptr %4, align 4
  br label %59

59:                                               ; preds = %56, %11
  %60 = load i32, ptr %4, align 4
  ret i32 %60
}