; Function Attrs: mustprogress nofree norecurse nosync nounwind willreturn memory(argmem: read) uwtable
define range(i32 0, 2) i32 @nk_input_is_mouse_hovering_rect(ptr noundef readonly captures(address_is_null) %0, <2 x float> %1, <2 x float> %2) local_unnamed_addr #3 {
  %.not = icmp eq ptr %0, null
  br i1 %.not, label %20, label %4

4:                                                ; preds = %3
  %.sroa.0.0.vec.extract = extractelement <2 x float> %1, i64 0
  %5 = getelementptr inbounds nuw i8, ptr %0, i64 324
  %6 = load float, ptr %5, align 4, !tbaa !722
  %7 = fcmp ole float %.sroa.0.0.vec.extract, %6
  %8 = fadd <2 x float> %1, %2
  %9 = extractelement <2 x float> %8, i64 0
  %10 = fcmp olt float %6, %9
  %or.cond = select i1 %7, i1 %10, i1 false
  br i1 %or.cond, label %11, label %20

11:                                               ; preds = %4
  %.sroa.0.4.vec.extract = extractelement <2 x float> %1, i64 1
  %12 = getelementptr inbounds nuw i8, ptr %0, i64 328
  %13 = load float, ptr %12, align 4, !tbaa !724
  %14 = fcmp ugt float %.sroa.0.4.vec.extract, %13
  br i1 %14, label %20, label %15

15:                                               ; preds = %11
  %16 = fadd <2 x float> %1, %2
  %17 = extractelement <2 x float> %16, i64 1
  %18 = fcmp olt float %13, %17
  %19 = zext i1 %18 to i32
  br label %20

20:                                               ; preds = %4, %15, %11, %3
  %.0 = phi i32 [ 0, %3 ], [ 0, %4 ], [ 0, %11 ], [ %19, %15 ]
  ret i32 %.0
}